target datalayout = "e-m:e-p270:32:32-p271:32:32-p272:64:64-i64:64-i128:128-f80:128-n8:16:32:64-S128"
target triple = "x86_64-pc-linux-gnu"

%struct.gres_state = type { i32, i32, ptr, ptr, i32 }
%struct.gres_job_state = type { i32, ptr, i16, i16, i64, i64, i64, i64, i64, i16, i16, i64, i32, ptr, ptr, ptr, ptr, i32, i64, i32, ptr, ptr, ptr, ptr, ptr, ptr }
%struct.gres_step_state = type { i32, ptr, i16, i16, i64, i64, i64, i64, i64, i16, i64, i64, ptr, i32, ptr, ptr, ptr }
%struct.merge_generic_t = type { ptr, i8, i32 }

; Function Attrs: nounwind uwtable
define internal i32 @_foreach_merge_generic_data(ptr noundef %0, ptr noundef %1) #0 {
  %3 = alloca i32, align 4
  %4 = alloca ptr, align 8
  %5 = alloca ptr, align 8
  %6 = alloca ptr, align 8
  %7 = alloca ptr, align 8
  %8 = alloca i32, align 4
  %9 = alloca ptr, align 8
  %10 = alloca ptr, align 8
  %11 = alloca ptr, align 8
  %12 = alloca ptr, align 8
  store ptr %0, ptr %4, align 8
  store ptr %1, ptr %5, align 8
  call void @llvm.lifetime.start.p0(i64 8, ptr %6) #11
  %13 = load ptr, ptr %4, align 8
  store ptr %13, ptr %6, align 8
  call void @llvm.lifetime.start.p0(i64 8, ptr %7) #11
  %14 = load ptr, ptr %5, align 8
  store ptr %14, ptr %7, align 8
  %15 = load ptr, ptr %7, align 8
  %16 = getelementptr inbounds nuw %struct.merge_generic_t, ptr %15, i32 0, i32 2
  %17 = load i32, ptr %16, align 4
  %18 = load ptr, ptr %6, align 8
  %19 = getelementptr inbounds nuw %struct.gres_state, ptr %18, i32 0, i32 1
  %20 = load i32, ptr %19, align 4
  %21 = icmp ne i32 %17, %20
  br i1 %21, label %22, label %23

22:                                               ; preds = %2
  store i32 0, ptr %3, align 4
  store i32 1, ptr %8, align 4
  br label %96

23:                                               ; preds = %2
  %24 = load ptr, ptr %7, align 8
  %25 = getelementptr inbounds nuw %struct.merge_generic_t, ptr %24, i32 0, i32 0
  %26 = load ptr, ptr %25, align 8
  %27 = load ptr, ptr %6, align 8
  %28 = getelementptr inbounds nuw %struct.gres_state, ptr %27, i32 0, i32 2
  %29 = load ptr, ptr %28, align 8
  %30 = icmp eq ptr %26, %29
  br i1 %30, label %31, label %32

31:                                               ; preds = %23
  store i32 1, ptr %3, align 4
  store i32 1, ptr %8, align 4
  br label %96

32:                                               ; preds = %23
  %33 = load ptr, ptr %7, align 8
  %34 = getelementptr inbounds nuw %struct.merge_generic_t, ptr %33, i32 0, i32 1
  %35 = load i8, ptr %34, align 8, !range !8, !noundef !9
  %36 = trunc i8 %35 to i1
  br i1 %36, label %37, label %66

37:                                               ; preds = %32
  call void @llvm.lifetime.start.p0(i64 8, ptr %9) #11
  %38 = load ptr, ptr %7, align 8
  %39 = getelementptr inbounds nuw %struct.merge_generic_t, ptr %38, i32 0, i32 0
  %40 = load ptr, ptr %39, align 8
  store ptr %40, ptr %9, align 8
  call void @llvm.lifetime.start.p0(i64 8, ptr %10) #11
  %41 = load ptr, ptr %6, align 8
  %42 = getelementptr inbounds nuw %struct.gres_state, ptr %41, i32 0, i32 2
  %43 = load ptr, ptr %42, align 8
  store ptr %43, ptr %10, align 8
  %44 = load ptr, ptr %10, align 8
  %45 = getelementptr inbounds nuw %struct.gres_job_state, ptr %44, i32 0, i32 3
  %46 = load i16, ptr %45, align 2
  %47 = icmp ne i16 %46, 0
  br i1 %47, label %54, label %48

48:                                               ; preds = %37
  %49 = load ptr, ptr %9, align 8
  %50 = getelementptr inbounds nuw %struct.gres_job_state, ptr %49, i32 0, i32 3
  %51 = load i16, ptr %50, align 2
  %52 = load ptr, ptr %10, align 8
  %53 = getelementptr inbounds nuw %struct.gres_job_state, ptr %52, i32 0, i32 3
  store i16 %51, ptr %53, align 2
  br label %54

54:                                               ; preds = %48, %37
  %55 = load ptr, ptr %10, align 8
  %56 = getelementptr inbounds nuw %struct.gres_job_state, ptr %55, i32 0, i32 8
  %57 = load i64, ptr %56, align 8
  %58 = icmp ne i64 %57, 0
  br i1 %58, label %65, label %59

59:                                               ; preds = %54
  %60 = load ptr, ptr %9, align 8
  %61 = getelementptr inbounds nuw %struct.gres_job_state, ptr %60, i32 0, i32 8
  %62 = load i64, ptr %61, align 8
  %63 = load ptr, ptr %10, align 8
  %64 = getelementptr inbounds nuw %struct.gres_job_state, ptr %63, i32 0, i32 8
  store i64 %62, ptr %64, align 8
  br label %65

65:                                               ; preds = %59, %54
  call void @llvm.lifetime.end.p0(i64 8, ptr %10) #11
  call void @llvm.lifetime.end.p0(i64 8, ptr %9) #11
  br label %95

66:                                               ; preds = %32
  call void @llvm.lifetime.start.p0(i64 8, ptr %11) #11
  %67 = load ptr, ptr %7, align 8
  %68 = getelementptr inbounds nuw %struct.merge_generic_t, ptr %67, i32 0, i32 0
  %69 = load ptr, ptr %68, align 8
  store ptr %69, ptr %11, align 8
  call void @llvm.lifetime.start.p0(i64 8, ptr %12) #11
  %70 = load ptr, ptr %6, align 8
  %71 = getelementptr inbounds nuw %struct.gres_state, ptr %70, i32 0, i32 2
  %72 = load ptr, ptr %71, align 8
  store ptr %72, ptr %12, align 8
  %73 = load ptr, ptr %12, align 8
  %74 = getelementptr inbounds nuw %struct.gres_step_state, ptr %73, i32 0, i32 3
  %75 = load i16, ptr %74, align 2
  %76 = icmp ne i16 %75, 0
  br i1 %76, label %83, label %77

77:                                               ; preds = %66
  %78 = load ptr, ptr %11, align 8
  %79 = getelementptr inbounds nuw %struct.gres_step_state, ptr %78, i32 0, i32 3
  %80 = load i16, ptr %79, align 2
  %81 = load ptr, ptr %12, align 8
  %82 = getelementptr inbounds nuw %struct.gres_step_state, ptr %81, i32 0, i32 3
  store i16 %80, ptr %82, align 2
  br label %83

83:                                               ; preds = %77, %66
  %84 = load ptr, ptr %12, align 8
  %85 = getelementptr inbounds nuw %struct.gres_step_state, ptr %84, i32 0, i32 8
  %86 = load i64, ptr %85, align 8
  %87 = icmp ne i64 %86, 0
  br i1 %87, label %94, label %88

88:                                               ; preds = %83
  %89 = load ptr, ptr %11, align 8
  %90 = getelementptr inbounds nuw %struct.gres_step_state, ptr %89, i32 0, i32 8
  %91 = load i64, ptr %90, align 8
  %92 = load ptr, ptr %12, align 8
  %93 = getelementptr inbounds nuw %struct.gres_step_state, ptr %92, i32 0, i32 8
  store i64 %91, ptr %93, align 8
  br label %94

94:                                               ; preds = %88, %83
  call void @llvm.lifetime.end.p0(i64 8, ptr %12) #11
  call void @llvm.lifetime.end.p0(i64 8, ptr %11) #11
  br label %95

95:                                               ; preds = %94, %65
  store i32 0, ptr %3, align 4
  store i32 1, ptr %8, align 4
  br label %96

96:                                               ; preds = %95, %31, %22
  call void @llvm.lifetime.end.p0(i64 8, ptr %7) #11
  call void @llvm.lifetime.end.p0(i64 8, ptr %6) #11
  %97 = load i32, ptr %3, align 4
  ret i32 %97
}