; Function Attrs: mustprogress nofree norecurse nosync nounwind willreturn memory(readwrite, inaccessiblemem: none) uwtable
define internal range(i32 0, 2) i32 @_foreach_merge_generic_data(ptr noundef readonly captures(none) %0, ptr noundef readonly captures(none) %1) #22 {
  %3 = getelementptr inbounds nuw i8, ptr %1, i64 12
  %4 = load i32, ptr %3, align 4
  %5 = getelementptr inbounds nuw i8, ptr %0, i64 4
  %6 = load i32, ptr %5, align 4
  %.not = icmp eq i32 %4, %6
  br i1 %.not, label %7, label %38

7:                                                ; preds = %2
  %8 = load ptr, ptr %1, align 8
  %9 = getelementptr inbounds nuw i8, ptr %0, i64 8
  %10 = load ptr, ptr %9, align 8
  %11 = icmp eq ptr %8, %10
  br i1 %11, label %38, label %12

12:                                               ; preds = %7
  %13 = getelementptr inbounds nuw i8, ptr %1, i64 8
  %14 = load i8, ptr %13, align 8, !range !13, !noundef !14
  %15 = trunc nuw i8 %14 to i1
  %16 = getelementptr inbounds nuw i8, ptr %10, i64 18
  %17 = load i16, ptr %16, align 2
  %.not27 = icmp eq i16 %17, 0
  br i1 %15, label %18, label %28

18:                                               ; preds = %12
  br i1 %.not27, label %19, label %22

19:                                               ; preds = %18
  %20 = getelementptr inbounds nuw i8, ptr %8, i64 18
  %21 = load i16, ptr %20, align 2
  store i16 %21, ptr %16, align 2
  br label %22

22:                                               ; preds = %19, %18
  %23 = getelementptr inbounds nuw i8, ptr %10, i64 56
  %24 = load i64, ptr %23, align 8
  %.not28 = icmp eq i64 %24, 0
  br i1 %.not28, label %25, label %38

25:                                               ; preds = %22
  %26 = getelementptr inbounds nuw i8, ptr %8, i64 56
  %27 = load i64, ptr %26, align 8
  store i64 %27, ptr %23, align 8
  br label %38

28:                                               ; preds = %12
  br i1 %.not27, label %29, label %32

29:                                               ; preds = %28
  %30 = getelementptr inbounds nuw i8, ptr %8, i64 18
  %31 = load i16, ptr %30, align 2
  store i16 %31, ptr %16, align 2
  br label %32

32:                                               ; preds = %29, %28
  %33 = getelementptr inbounds nuw i8, ptr %10, i64 56
  %34 = load i64, ptr %33, align 8
  %.not26 = icmp eq i64 %34, 0
  br i1 %.not26, label %35, label %38

35:                                               ; preds = %32
  %36 = getelementptr inbounds nuw i8, ptr %8, i64 56
  %37 = load i64, ptr %36, align 8
  store i64 %37, ptr %33, align 8
  br label %38

38:                                               ; preds = %25, %22, %35, %32, %7, %2
  %.0 = phi i32 [ 0, %2 ], [ 1, %7 ], [ 0, %32 ], [ 0, %35 ], [ 0, %22 ], [ 0, %25 ]
  ret i32 %.0
}